#include <math.h>
#include <stdio.h>
#include <stdlib.h>
#include <string.h>


int main(int argc, char* argv[])
{
	int j,n,i,zs[300],nzs[300],k=0,jihao[300];
	scanf ("%d",&n);
	for (i=0;i<n;i++){
		jihao[i]=-100;
	}
	for (i=0;i<n;i++){
		scanf ("%d",&zs[i]);
	}
    for (i=n-1;i>0;i--){
        for (j=i-1;j>=0;j--){
			if (zs[i]==zs[j]){
			jihao[i]=i;
			break;
            }
		}
	}
	for (i=0;i<n;i++){
			if (i!=jihao[i]){
				nzs[k]=zs[i];
                k++;
            }
	}
	for (i=0;i<k-1;i++){
		printf ("%d,",nzs[i]);
	}
	printf ("%d",nzs[k-1]);
	return 0;
}